target datalayout = "e-m:e-p270:32:32-p271:32:32-p272:64:64-i64:64-i128:128-f80:128-n8:16:32:64-S128"
target triple = "x86_64-pc-linux-gnu"

%"class.icu_77::Hashtable" = type { ptr, %struct.UHashtable }
%struct.UHashtable = type { ptr, ptr, ptr, ptr, ptr, ptr, i32, i32, i32, i32, float, float, i8, i8 }
%"class.icu_77::TransliterationRuleData" = type { [8 x i8], %"class.icu_77::TransliterationRuleSet", %"class.icu_77::Hashtable", ptr, i8, i16, i32 }
%"class.icu_77::TransliterationRuleSet" = type { ptr, ptr, ptr, [257 x i32], i32 }
%"class.icu_77::UVector" = type { %"class.icu_77::UObject", i32, i32, ptr, ptr, ptr }
%"class.icu_77::UObject" = type { ptr }
%"class.icu_77::UnicodeString" = type { %"class.icu_77::Replaceable", %"union.icu_77::UnicodeString::StackBufferOrFields" }
%"class.icu_77::Replaceable" = type { %"class.icu_77::UObject" }
%"union.icu_77::UnicodeString::StackBufferOrFields" = type { %struct.anon.0, [32 x i8] }
%struct.anon.0 = type { i16, i32, i32, ptr }
%"class.icu_77::TransliteratorParser" = type <{ [8 x i8], %"class.icu_77::UVector", %"class.icu_77::UVector", ptr, ptr, i32, %struct.UParseError, [4 x i8], ptr, %"class.icu_77::UVector", %"class.icu_77::Hashtable", %"class.icu_77::UnicodeString", %"class.icu_77::UVector", i16, i16, [4 x i8], %"class.icu_77::UnicodeString", i16, [6 x i8] }>
%struct.UParseError = type { i32, i32, [16 x i16], [16 x i16] }

; Function Attrs: inlinehint mustprogress nounwind uwtable
define linkonce_odr noundef i32 @_ZNK6icu_777UVector4sizeEv(ptr noundef nonnull align 8 dereferenceable(40) %0) #2 comdat align 2 {
  %2 = alloca ptr, align 8
  store ptr %0, ptr %2, align 8, !tbaa !27
  %3 = load ptr, ptr %2, align 8
  %4 = getelementptr inbounds nuw %"class.icu_77::UVector", ptr %3, i32 0, i32 1
  %5 = load i32, ptr %4, align 8, !tbaa !57
  ret i32 %5
}

; Function Attrs: mustprogress uwtable
define void @_ZN6icu_7720TransliteratorParser16setVariableRangeEiiR10UErrorCode(ptr noundef nonnull align 8 dereferenceable(498) %0, i32 noundef %1, i32 noundef %2, ptr noundef nonnull align 4 dereferenceable(4) %3) #1 align 2 {
  %5 = alloca ptr, align 8
  %6 = alloca i32, align 4
  %7 = alloca i32, align 4
  %8 = alloca ptr, align 8
  store ptr %0, ptr %5, align 8, !tbaa !71
  store i32 %1, ptr %6, align 4, !tbaa !14
  store i32 %2, ptr %7, align 4, !tbaa !14
  store ptr %3, ptr %8, align 8, !tbaa !22
  %9 = load ptr, ptr %5, align 8
  %10 = load i32, ptr %6, align 4, !tbaa !14
  %11 = load i32, ptr %7, align 4, !tbaa !14
  %12 = icmp sgt i32 %10, %11
  br i1 %12, label %19, label %13

13:                                               ; preds = %4
  %14 = load i32, ptr %6, align 4, !tbaa !14
  %15 = icmp slt i32 %14, 0
  br i1 %15, label %19, label %16

16:                                               ; preds = %13
  %17 = load i32, ptr %7, align 4, !tbaa !14
  %18 = icmp sgt i32 %17, 65535
  br i1 %18, label %19, label %21

19:                                               ; preds = %16, %13, %4
  %20 = load ptr, ptr %8, align 8, !tbaa !22
  store i32 65562, ptr %20, align 4, !tbaa !15
  br label %38

21:                                               ; preds = %16
  %22 = load i32, ptr %6, align 4, !tbaa !14
  %23 = trunc i32 %22 to i16
  %24 = getelementptr inbounds nuw %"class.icu_77::TransliteratorParser", ptr %9, i32 0, i32 4
  %25 = load ptr, ptr %24, align 8, !tbaa !88
  %26 = getelementptr inbounds nuw %"class.icu_77::TransliterationRuleData", ptr %25, i32 0, i32 5
  store i16 %23, ptr %26, align 2, !tbaa !50
  %27 = getelementptr inbounds nuw %"class.icu_77::TransliteratorParser", ptr %9, i32 0, i32 1
  %28 = call noundef i32 @_ZNK6icu_777UVector4sizeEv(ptr noundef nonnull align 8 dereferenceable(40) %27)
  %29 = icmp eq i32 %28, 0
  br i1 %29, label %30, label %38

30:                                               ; preds = %21
  %31 = load i32, ptr %6, align 4, !tbaa !14
  %32 = trunc i32 %31 to i16
  %33 = getelementptr inbounds nuw %"class.icu_77::TransliteratorParser", ptr %9, i32 0, i32 13
  store i16 %32, ptr %33, align 8, !tbaa !113
  %34 = load i32, ptr %7, align 4, !tbaa !14
  %35 = add nsw i32 %34, 1
  %36 = trunc i32 %35 to i16
  %37 = getelementptr inbounds nuw %"class.icu_77::TransliteratorParser", ptr %9, i32 0, i32 14
  store i16 %36, ptr %37, align 2, !tbaa !111
  br label %38

38:                                               ; preds = %19, %30, %21
  ret void
}