; Function Attrs: mustprogress nofree norecurse nosync nounwind willreturn memory(write, argmem: readwrite, inaccessiblemem: none) uwtable
define void @_ZN6icu_7720TransliteratorParser16setVariableRangeEiiR10UErrorCode(ptr noundef nonnull align 8 captures(none) dereferenceable(498) %0, i32 noundef %1, i32 noundef %2, ptr noundef nonnull writeonly align 4 captures(none) dereferenceable(4) %3) local_unnamed_addr #15 align 2 {
  %5 = icmp sgt i32 %1, %2
  %6 = icmp slt i32 %1, 0
  %or.cond = or i1 %6, %5
  %7 = icmp sgt i32 %2, 65535
  %or.cond3 = or i1 %7, %or.cond
  br i1 %or.cond3, label %8, label %9

8:                                                ; preds = %4
  store i32 65562, ptr %3, align 4, !tbaa !13
  br label %22

9:                                                ; preds = %4
  %10 = trunc i32 %1 to i16
  %11 = getelementptr inbounds nuw i8, ptr %0, i64 96
  %12 = load ptr, ptr %11, align 8, !tbaa !66
  %13 = getelementptr inbounds nuw i8, ptr %12, i64 1162
  store i16 %10, ptr %13, align 2, !tbaa !31
  %14 = getelementptr inbounds nuw i8, ptr %0, i64 16
  %15 = load i32, ptr %14, align 8, !tbaa !38
  %16 = icmp eq i32 %15, 0
  br i1 %16, label %17, label %22

17:                                               ; preds = %9
  %18 = getelementptr inbounds nuw i8, ptr %0, i64 424
  store i16 %10, ptr %18, align 8, !tbaa !76
  %19 = trunc i32 %2 to i16
  %20 = add i16 %19, 1
  %21 = getelementptr inbounds nuw i8, ptr %0, i64 426
  store i16 %20, ptr %21, align 2, !tbaa !77
  br label %22

22:                                               ; preds = %17, %9, %8
  ret void
}